target datalayout = "e-m:e-p270:32:32-p271:32:32-p272:64:64-i64:64-i128:128-f80:128-n8:16:32:64-S128"
target triple = "x86_64-pc-linux-gnu"

%struct.IndexScanState = type { %struct.ScanState, ptr, ptr, ptr, i32, ptr, i32, ptr, i32, i8, ptr, ptr, ptr, ptr, i8, ptr, ptr, ptr, ptr, ptr, i64 }
%struct.ScanState = type { %struct.PlanState, ptr, ptr, ptr }
%struct.PlanState = type { i32, ptr, ptr, ptr, ptr, ptr, ptr, ptr, ptr, ptr, ptr, ptr, ptr, ptr, ptr, ptr, ptr, ptr, i8, ptr, ptr, ptr, ptr, ptr, i8, i8, i8, i8, i8, i8, i8, i8 }
%struct.EState = type { i32, i32, ptr, ptr, ptr, i32, ptr, ptr, ptr, ptr, ptr, ptr, ptr, ptr, ptr, ptr, i32, ptr, ptr, ptr, ptr, ptr, ptr, ptr, ptr, ptr, ptr, i64, i64, i32, i32, i8, ptr, ptr, ptr, ptr, ptr, i8, i32, i32, ptr, i32, ptr, ptr, ptr, ptr }
%struct.Scan = type { %struct.Plan, i32 }
%struct.Plan = type { i32, i32, double, double, double, i32, i8, i8, i8, i32, ptr, ptr, ptr, ptr, ptr, ptr, ptr }
%struct.EPQState = type { ptr, i32, ptr, ptr, ptr, ptr, ptr, ptr, ptr, ptr, ptr, ptr, ptr }

@.str.1 = private unnamed_addr constant [16 x i8] c"nodeIndexscan.c\00", align 1
@.str.2 = private unnamed_addr constant [49 x i8] c"unexpected ExecIndexRestrPos call in EPQ recheck\00", align 1
@__func__.ExecIndexRestrPos = private unnamed_addr constant [18 x i8] c"ExecIndexRestrPos\00", align 1

; Function Attrs: nounwind uwtable
define dso_local void @ExecIndexRestrPos(ptr noundef %0) #0 {
  %2 = alloca ptr, align 8
  %3 = alloca ptr, align 8
  %4 = alloca ptr, align 8
  %5 = alloca i32, align 4
  %6 = alloca i32, align 4
  store ptr %0, ptr %2, align 8
  call void @llvm.lifetime.start.p0(i64 8, ptr %3) #7
  %7 = load ptr, ptr %2, align 8
  %8 = getelementptr inbounds nuw %struct.IndexScanState, ptr %7, i32 0, i32 0
  %9 = getelementptr inbounds nuw %struct.ScanState, ptr %8, i32 0, i32 0
  %10 = getelementptr inbounds nuw %struct.PlanState, ptr %9, i32 0, i32 2
  %11 = load ptr, ptr %10, align 8
  store ptr %11, ptr %3, align 8
  call void @llvm.lifetime.start.p0(i64 8, ptr %4) #7
  %12 = load ptr, ptr %3, align 8
  %13 = getelementptr inbounds nuw %struct.EState, ptr %12, i32 0, i32 36
  %14 = load ptr, ptr %13, align 8
  store ptr %14, ptr %4, align 8
  %15 = load ptr, ptr %3, align 8
  %16 = getelementptr inbounds nuw %struct.EState, ptr %15, i32 0, i32 36
  %17 = load ptr, ptr %16, align 8
  %18 = icmp ne ptr %17, null
  br i1 %18, label %19, label %72

19:                                               ; preds = %1
  call void @llvm.lifetime.start.p0(i64 4, ptr %5) #7
  %20 = load ptr, ptr %2, align 8
  %21 = getelementptr inbounds nuw %struct.IndexScanState, ptr %20, i32 0, i32 0
  %22 = getelementptr inbounds nuw %struct.ScanState, ptr %21, i32 0, i32 0
  %23 = getelementptr inbounds nuw %struct.PlanState, ptr %22, i32 0, i32 1
  %24 = load ptr, ptr %23, align 8
  %25 = getelementptr inbounds nuw %struct.Scan, ptr %24, i32 0, i32 1
  %26 = load i32, ptr %25, align 8
  store i32 %26, ptr %5, align 4
  %27 = load ptr, ptr %4, align 8
  %28 = getelementptr inbounds nuw %struct.EPQState, ptr %27, i32 0, i32 4
  %29 = load ptr, ptr %28, align 8
  %30 = load i32, ptr %5, align 4
  %31 = sub i32 %30, 1
  %32 = zext i32 %31 to i64
  %33 = getelementptr inbounds nuw ptr, ptr %29, i64 %32
  %34 = load ptr, ptr %33, align 8
  %35 = icmp ne ptr %34, null
  br i1 %35, label %46, label %36

36:                                               ; preds = %19
  %37 = load ptr, ptr %4, align 8
  %38 = getelementptr inbounds nuw %struct.EPQState, ptr %37, i32 0, i32 9
  %39 = load ptr, ptr %38, align 8
  %40 = load i32, ptr %5, align 4
  %41 = sub i32 %40, 1
  %42 = zext i32 %41 to i64
  %43 = getelementptr inbounds nuw ptr, ptr %39, i64 %42
  %44 = load ptr, ptr %43, align 8
  %45 = icmp ne ptr %44, null
  br i1 %45, label %46, label %68

46:                                               ; preds = %36, %19
  %47 = load ptr, ptr %4, align 8
  %48 = getelementptr inbounds nuw %struct.EPQState, ptr %47, i32 0, i32 10
  %49 = load ptr, ptr %48, align 8
  %50 = load i32, ptr %5, align 4
  %51 = sub i32 %50, 1
  %52 = zext i32 %51 to i64
  %53 = getelementptr inbounds nuw i8, ptr %49, i64 %52
  %54 = load i8, ptr %53, align 1, !range !6, !noundef !7
  %55 = trunc i8 %54 to i1
  br i1 %55, label %67, label %56

56:                                               ; preds = %46
  br label %57

57:                                               ; preds = %56
  br i1 true, label %58, label %60

58:                                               ; preds = %57
  %59 = call zeroext i1 @errstart_cold(i32 noundef 21, ptr noundef null) #8
  br i1 %59, label %62, label %64

60:                                               ; preds = %57
  %61 = call zeroext i1 @errstart(i32 noundef 21, ptr noundef null)
  br i1 %61, label %62, label %64

62:                                               ; preds = %60, %58
  %63 = call i32 (ptr, ...) @errmsg_internal(ptr noundef @.str.2)
  call void @errfinish(ptr noundef @.str.1, i32 noundef 866, ptr noundef @__func__.ExecIndexRestrPos)
  br label %64

64:                                               ; preds = %62, %60, %58
  unreachable

65:                                               ; No predecessors!
  br label %66

66:                                               ; preds = %65
  br label %67

67:                                               ; preds = %66, %46
  store i32 1, ptr %6, align 4
  br label %69

68:                                               ; preds = %36
  store i32 0, ptr %6, align 4
  br label %69

69:                                               ; preds = %68, %67
  call void @llvm.lifetime.end.p0(i64 4, ptr %5) #7
  %70 = load i32, ptr %6, align 4
  switch i32 %70, label %76 [
    i32 0, label %71
  ]

71:                                               ; preds = %69
  br label %72

72:                                               ; preds = %71, %1
  %73 = load ptr, ptr %2, align 8
  %74 = getelementptr inbounds nuw %struct.IndexScanState, ptr %73, i32 0, i32 12
  %75 = load ptr, ptr %74, align 8
  call void @index_restrpos(ptr noundef %75)
  store i32 0, ptr %6, align 4
  br label %76

76:                                               ; preds = %72, %69
  call void @llvm.lifetime.end.p0(i64 8, ptr %4) #7
  call void @llvm.lifetime.end.p0(i64 8, ptr %3) #7
  %77 = load i32, ptr %6, align 4
  switch i32 %77, label %79 [
    i32 0, label %78
    i32 1, label %78
  ]

78:                                               ; preds = %76, %76
  ret void

79:                                               ; preds = %76
  unreachable
}