; Function Attrs: nounwind uwtable
define dso_local void @ExecIndexRestrPos(ptr noundef readonly captures(none) %0) local_unnamed_addr #0 {
  %2 = getelementptr inbounds nuw i8, ptr %0, i64 16
  %3 = load ptr, ptr %2, align 8
  %4 = getelementptr inbounds nuw i8, ptr %3, i64 272
  %5 = load ptr, ptr %4, align 8
  %.not = icmp eq ptr %5, null
  br i1 %.not, label %31, label %6

6:                                                ; preds = %1
  %7 = getelementptr inbounds nuw i8, ptr %0, i64 8
  %8 = load ptr, ptr %7, align 8
  %9 = getelementptr inbounds nuw i8, ptr %8, i64 104
  %10 = load i32, ptr %9, align 8
  %11 = getelementptr inbounds nuw i8, ptr %5, i64 32
  %12 = load ptr, ptr %11, align 8
  %13 = add i32 %10, -1
  %14 = zext i32 %13 to i64
  %15 = getelementptr inbounds nuw ptr, ptr %12, i64 %14
  %16 = load ptr, ptr %15, align 8
  %.not12 = icmp eq ptr %16, null
  br i1 %.not12, label %17, label %22

17:                                               ; preds = %6
  %18 = getelementptr inbounds nuw i8, ptr %5, i64 72
  %19 = load ptr, ptr %18, align 8
  %20 = getelementptr inbounds nuw ptr, ptr %19, i64 %14
  %21 = load ptr, ptr %20, align 8
  %.not13 = icmp eq ptr %21, null
  br i1 %.not13, label %31, label %22

22:                                               ; preds = %17, %6
  %23 = getelementptr inbounds nuw i8, ptr %5, i64 80
  %24 = load ptr, ptr %23, align 8
  %25 = getelementptr inbounds nuw i8, ptr %24, i64 %14
  %26 = load i8, ptr %25, align 1, !range !4, !noundef !5
  %27 = trunc nuw i8 %26 to i1
  br i1 %27, label %.critedge, label %28

28:                                               ; preds = %22
  %29 = tail call zeroext i1 @errstart_cold(i32 noundef 21, ptr noundef null) #8
  tail call void @llvm.assume(i1 %29)
  %30 = tail call i32 (ptr, ...) @errmsg_internal(ptr noundef nonnull @.str.2) #7
  tail call void @errfinish(ptr noundef nonnull @.str.1, i32 noundef 866, ptr noundef nonnull @__func__.ExecIndexRestrPos) #7
  unreachable

31:                                               ; preds = %17, %1
  %32 = getelementptr inbounds nuw i8, ptr %0, i64 304
  %33 = load ptr, ptr %32, align 8
  tail call void @index_restrpos(ptr noundef %33) #7
  br label %.critedge

.critedge:                                        ; preds = %22, %31
  ret void
}